; Function Attrs: mustprogress nofree norecurse nounwind willreturn uwtable
define noundef range(i64 0, 4294967296) i64 @_ZNK4base25PersistentMemoryAllocator4usedEv(ptr noundef nonnull readonly align 8 captures(none) dereferenceable(48) %0) local_unnamed_addr #1 align 2 {
  %2 = getelementptr inbounds nuw i8, ptr %0, i64 8
  %3 = load ptr, ptr %2, align 8, !tbaa !20
  %4 = getelementptr inbounds nuw i8, ptr %3, i64 32
  %5 = load atomic volatile i32, ptr %4 monotonic, align 4
  %6 = getelementptr inbounds nuw i8, ptr %0, i64 16
  %7 = load i32, ptr %6, align 8, !tbaa !27
  %.sroa.speculated = tail call i32 @llvm.umin.i32(i32 %7, i32 %5)
  %8 = zext i32 %.sroa.speculated to i64
  ret i64 %8
}